target datalayout = "e-m:e-p270:32:32-p271:32:32-p272:64:64-i64:64-i128:128-f80:128-n8:16:32:64-S128"
target triple = "x86_64-pc-linux-gnu"

@_ZN3nix16defaultLogFormatE = global i32 0, align 4

; Function Attrs: mustprogress uwtable
define noundef ptr @_ZN3nix17makeDefaultLoggerEv() #3 {
  %1 = alloca ptr, align 8
  %2 = alloca ptr, align 8
  %3 = load i32, ptr @_ZN3nix16defaultLogFormatE, align 4
  switch i32 %3, label %20 [
    i32 0, label %4
    i32 1, label %6
    i32 2, label %8
    i32 3, label %11
    i32 4, label %13
  ]

4:                                                ; preds = %0
  %5 = call noundef ptr @_ZN3nix16makeSimpleLoggerEb(i1 noundef zeroext false)
  store ptr %5, ptr %1, align 8
  br label %21

6:                                                ; preds = %0
  %7 = call noundef ptr @_ZN3nix16makeSimpleLoggerEb(i1 noundef zeroext true)
  store ptr %7, ptr %1, align 8
  br label %21

8:                                                ; preds = %0
  %9 = call noundef ptr @_ZN3nix16makeSimpleLoggerEb(i1 noundef zeroext true)
  %10 = call noundef ptr @_ZN3nix14makeJSONLoggerERNS_6LoggerE(ptr noundef nonnull align 8 dereferenceable(8) %9)
  store ptr %10, ptr %1, align 8
  br label %21

11:                                               ; preds = %0
  %12 = call noundef ptr @_ZN3nix15makeProgressBarEv()
  store ptr %12, ptr %1, align 8
  br label %21

13:                                               ; preds = %0
  %14 = call noundef ptr @_ZN3nix15makeProgressBarEv()
  store ptr %14, ptr %2, align 8
  %15 = load ptr, ptr %2, align 8
  %16 = load ptr, ptr %15, align 8
  %17 = getelementptr inbounds ptr, ptr %16, i64 14
  %18 = load ptr, ptr %17, align 8
  call void %18(ptr noundef nonnull align 8 dereferenceable(8) %15, i1 noundef zeroext true)
  %19 = load ptr, ptr %2, align 8
  store ptr %19, ptr %1, align 8
  br label %21

20:                                               ; preds = %0
  call void @abort() #17
  unreachable

21:                                               ; preds = %13, %11, %8, %6, %4
  %22 = load ptr, ptr %1, align 8
  ret ptr %22
}