; Function Attrs: mustprogress uwtable
define noundef ptr @_ZN3nix17makeDefaultLoggerEv() local_unnamed_addr #2 {
  %1 = load i32, ptr @_ZN3nix16defaultLogFormatE, align 4
  switch i32 %1, label %16 [
    i32 0, label %2
    i32 1, label %4
    i32 2, label %6
    i32 3, label %9
    i32 4, label %11
  ]

2:                                                ; preds = %0
  %3 = tail call noundef ptr @_ZN3nix16makeSimpleLoggerEb(i1 noundef zeroext false)
  br label %17

4:                                                ; preds = %0
  %5 = tail call noundef ptr @_ZN3nix16makeSimpleLoggerEb(i1 noundef zeroext true)
  br label %17

6:                                                ; preds = %0
  %7 = tail call noundef ptr @_ZN3nix16makeSimpleLoggerEb(i1 noundef zeroext true)
  %8 = tail call noundef ptr @_ZN3nix14makeJSONLoggerERNS_6LoggerE(ptr noundef nonnull align 8 dereferenceable(8) %7)
  br label %17

9:                                                ; preds = %0
  %10 = tail call noundef ptr @_ZN3nix15makeProgressBarEv()
  br label %17

11:                                               ; preds = %0
  %12 = tail call noundef ptr @_ZN3nix15makeProgressBarEv()
  %13 = load ptr, ptr %12, align 8
  %14 = getelementptr inbounds i8, ptr %13, i64 112
  %15 = load ptr, ptr %14, align 8
  tail call void %15(ptr noundef nonnull align 8 dereferenceable(8) %12, i1 noundef zeroext true)
  br label %17

16:                                               ; preds = %0
  tail call void @abort() #25
  unreachable

17:                                               ; preds = %11, %9, %6, %4, %2
  %.0 = phi ptr [ %12, %11 ], [ %10, %9 ], [ %8, %6 ], [ %5, %4 ], [ %3, %2 ]
  ret ptr %.0
}